target datalayout = "e-m:e-p270:32:32-p271:32:32-p272:64:64-i64:64-i128:128-f80:128-n8:16:32:64-S128"
target triple = "x86_64-unknown-linux-gnu"

%"struct.google::SiteFlag" = type { ptr, ptr, i64, ptr }
%"struct.folly::unsafe_default_initialized_cv" = type { i8 }
%"class.google::LogMessageVoidify" = type { i8 }
%"class.google::LogMessage" = type { ptr, ptr, %"struct.google::LogMessageTime" }
%"struct.google::LogMessageTime" = type { %struct.tm, i64, i32, i64 }
%struct.tm = type { i32, i32, i32, i32, i32, i32, i32, i32, i32, i64, ptr }
%"class.folly::Function.296" = type { %"union.folly::detail::function::Data", ptr, ptr }
%"union.folly::detail::function::Data" = type { ptr, [40 x i8] }
%class.anon.410 = type { i32 }

@_ZN3fLI7FLAGS_vE = external global i32, align 4
@.str = private unnamed_addr constant [137 x i8] c"generated/home/dtcxzyw/WorkSpace/Projects/compilers/llvm-opt-benchmark/bench/proxygen/proxygen/proxygen/lib/http/session/HTTPSession.cpp\00", align 1
@_ZZN8proxygen11HTTPSession15onSetSendWindowEjE8vlocal__ = internal global %"struct.google::SiteFlag" zeroinitializer, align 8
@.str.107 = private unnamed_addr constant [39 x i8] c" got send window size adjustment. new=\00", align 1
@_ZN5folly26unsafe_default_initializedE = linkonce_odr constant %"struct.folly::unsafe_default_initialized_cv" undef, comdat, align 1

; Function Attrs: noreturn nounwind uwtable
define linkonce_odr hidden void @__clang_call_terminate(ptr noundef %0) #9 comdat {
  %2 = call ptr @__cxa_begin_catch(ptr %0) #3
  call void @_ZSt9terminatev() #30
  unreachable
}

; Function Attrs: mustprogress nounwind uwtable
define linkonce_odr noundef i64 @_ZNK5folly8FunctionIFvPN8proxygen15HTTPTransactionEEE4execENS_6detail8function2OpEPNS7_4DataESA_(ptr noundef nonnull align 16 dereferenceable(64) %this, i32 noundef %o, ptr noundef %src, ptr noundef %dst) #5 comdat align 2 {
entry:
  %retval = alloca i64, align 8
  %this.addr = alloca ptr, align 8
  %o.addr = alloca i32, align 4
  %src.addr = alloca ptr, align 8
  %dst.addr = alloca ptr, align 8
  store ptr %this, ptr %this.addr, align 8
  store i32 %o, ptr %o.addr, align 4
  store ptr %src, ptr %src.addr, align 8
  store ptr %dst, ptr %dst.addr, align 8
  %this1 = load ptr, ptr %this.addr, align 8
  %exec_ = getelementptr inbounds %"class.folly::Function.296", ptr %this1, i32 0, i32 2
  %0 = load ptr, ptr %exec_, align 8
  %tobool = icmp ne ptr %0, null
  br i1 %tobool, label %if.end, label %if.then

if.then:                                          ; preds = %entry
  store i64 0, ptr %retval, align 8
  br label %return

if.end:                                           ; preds = %entry
  %exec_2 = getelementptr inbounds %"class.folly::Function.296", ptr %this1, i32 0, i32 2
  %1 = load ptr, ptr %exec_2, align 8
  %2 = load i32, ptr %o.addr, align 4
  %3 = load ptr, ptr %src.addr, align 8
  %4 = load ptr, ptr %dst.addr, align 8
  %call = call noundef i64 %1(i32 noundef %2, ptr noundef %3, ptr noundef %4) #3
  store i64 %call, ptr %retval, align 8
  br label %return

return:                                           ; preds = %if.end, %if.then
  %5 = load i64, ptr %retval, align 8
  ret i64 %5
}

; Function Attrs: mustprogress nounwind uwtable
define linkonce_odr void @_ZN5folly8FunctionIFvPN8proxygen15HTTPTransactionEEED2Ev(ptr noundef nonnull align 16 dereferenceable(64) %this) unnamed_addr #5 comdat align 2 personality ptr @__gxx_personality_v0 {
entry:
  %this.addr = alloca ptr, align 8
  store ptr %this, ptr %this.addr, align 8
  %this1 = load ptr, ptr %this.addr, align 8
  %data_ = getelementptr inbounds %"class.folly::Function.296", ptr %this1, i32 0, i32 0
  %call = invoke noundef i64 @_ZNK5folly8FunctionIFvPN8proxygen15HTTPTransactionEEE4execENS_6detail8function2OpEPNS7_4DataESA_(ptr noundef nonnull align 16 dereferenceable(64) %this1, i32 noundef 1, ptr noundef %data_, ptr noundef null)
          to label %invoke.cont unwind label %terminate.lpad

invoke.cont:                                      ; preds = %entry
  ret void

terminate.lpad:                                   ; preds = %entry
  %0 = landingpad { ptr, i32 }
          catch ptr null
  %1 = extractvalue { ptr, i32 } %0, 0
  call void @__clang_call_terminate(ptr %1) #30
  unreachable
}

; Function Attrs: mustprogress nounwind uwtable
define internal void @"_ZN5folly8FunctionIFvPN8proxygen15HTTPTransactionEEEC2IZNS1_11HTTPSession15onSetSendWindowEjE3$_0vvLb1EEET_"(ptr noundef nonnull align 16 dereferenceable(64) %this, i32 %fun.coerce) unnamed_addr #5 align 2 {
entry:
  %this.addr.i = alloca ptr, align 8
  %fun = alloca %class.anon.410, align 4
  %this.addr = alloca ptr, align 8
  %coerce.dive = getelementptr inbounds %class.anon.410, ptr %fun, i32 0, i32 0
  store i32 %fun.coerce, ptr %coerce.dive, align 4
  store ptr %this, ptr %this.addr, align 8
  %this1 = load ptr, ptr %this.addr, align 8
  %data_ = getelementptr inbounds %"class.folly::Function.296", ptr %this1, i32 0, i32 0
  store ptr @_ZN5folly26unsafe_default_initializedE, ptr %this.addr.i, align 8
  store ptr null, ptr %data_, align 16
  %call_ = getelementptr inbounds %"class.folly::Function.296", ptr %this1, i32 0, i32 1
  store ptr @_ZN5folly6detail8function14FunctionTraitsIFvPN8proxygen15HTTPTransactionEEE10uninitCallES5_RNS1_4DataE, ptr %call_, align 16
  %exec_ = getelementptr inbounds %"class.folly::Function.296", ptr %this1, i32 0, i32 2
  store ptr null, ptr %exec_, align 8
  %data_2 = getelementptr inbounds %"class.folly::Function.296", ptr %this1, i32 0, i32 0
  call void @llvm.memcpy.p0.p0.i64(ptr align 16 %data_2, ptr align 4 %fun, i64 4, i1 false)
  %call_3 = getelementptr inbounds %"class.folly::Function.296", ptr %this1, i32 0, i32 1
  store ptr @"_ZN5folly6detail8function14FunctionTraitsIFvPN8proxygen15HTTPTransactionEEE9callSmallIZNS3_11HTTPSession15onSetSendWindowEjE3$_0EEvS5_RNS1_4DataE", ptr %call_3, align 16
  %exec_4 = getelementptr inbounds %"class.folly::Function.296", ptr %this1, i32 0, i32 2
  store ptr @_ZN5folly6detail8function20DispatchSmallTrivial5exec_ILm16EEEmNS1_2OpEPNS1_4DataES6_, ptr %exec_4, align 8
  ret void
}

; Function Attrs: mustprogress nounwind uwtable
define linkonce_odr void @_ZN6google17LogMessageVoidifyanERSo(ptr noundef nonnull align 1 dereferenceable(1) %this, ptr noundef nonnull align 8 dereferenceable(8) %0) #5 comdat align 2 {
entry:
  %this.addr = alloca ptr, align 8
  %.addr = alloca ptr, align 8
  store ptr %this, ptr %this.addr, align 8
  store ptr %0, ptr %.addr, align 8
  ret void
}

; Function Attrs: mustprogress nounwind uwtable
define linkonce_odr void @_ZN6google17LogMessageVoidifyC2Ev(ptr noundef nonnull align 1 dereferenceable(1) %this) unnamed_addr #5 comdat align 2 {
entry:
  %this.addr = alloca ptr, align 8
  store ptr %this, ptr %this.addr, align 8
  ret void
}

; Function Attrs: mustprogress uwtable
define void @_ZN8proxygen11HTTPSession15onSetSendWindowEj(ptr noundef nonnull align 8 dereferenceable(2504) %this, i32 noundef %windowSize) #4 align 2 personality ptr @__gxx_personality_v0 {
entry:
  %this.addr = alloca ptr, align 8
  %windowSize.addr = alloca i32, align 4
  %verbose_level__ = alloca i32, align 4
  %tmp = alloca i8, align 1
  %ref.tmp = alloca %"class.google::LogMessageVoidify", align 1
  %ref.tmp5 = alloca %"class.google::LogMessage", align 8
  %cleanup.cond = alloca i1, align 1
  %exn.slot = alloca ptr, align 8
  %ehselector.slot = alloca i32, align 4
  %agg.tmp = alloca %"class.folly::Function.296", align 16
  %agg.tmp18 = alloca %class.anon.410, align 4
  store ptr %this, ptr %this.addr, align 8
  store i32 %windowSize, ptr %windowSize.addr, align 4
  %this1 = load ptr, ptr %this.addr, align 8
  store i32 4, ptr %verbose_level__, align 4
  %0 = load ptr, ptr @_ZZN8proxygen11HTTPSession15onSetSendWindowEjE8vlocal__, align 8
  %cmp = icmp eq ptr %0, null
  store i1 false, ptr %cleanup.cond, align 1
  br i1 %cmp, label %cond.true, label %cond.false

cond.true:                                        ; preds = %entry
  %1 = load i32, ptr %verbose_level__, align 4
  %call = call noundef zeroext i1 @_ZN6google11InitVLOG3__EPNS_8SiteFlagEPiPKci(ptr noundef @_ZZN8proxygen11HTTPSession15onSetSendWindowEjE8vlocal__, ptr noundef @_ZN3fLI7FLAGS_vE, ptr noundef @.str, i32 noundef %1)
  br label %cond.end

cond.false:                                       ; preds = %entry
  %2 = load ptr, ptr @_ZZN8proxygen11HTTPSession15onSetSendWindowEjE8vlocal__, align 8
  %3 = load i32, ptr %2, align 4
  %4 = load i32, ptr %verbose_level__, align 4
  %cmp2 = icmp sge i32 %3, %4
  br label %cond.end

cond.end:                                         ; preds = %cond.false, %cond.true
  %cond = phi i1 [ %call, %cond.true ], [ %cmp2, %cond.false ]
  %frombool = zext i1 %cond to i8
  store i8 %frombool, ptr %tmp, align 1
  %5 = load i8, ptr %tmp, align 1
  %tobool = trunc i8 %5 to i1
  br i1 %tobool, label %cond.false4, label %cond.true3

cond.true3:                                       ; preds = %cond.end
  br label %cond.end14

cond.false4:                                      ; preds = %cond.end
  call void @_ZN6google17LogMessageVoidifyC2Ev(ptr noundef nonnull align 1 dereferenceable(1) %ref.tmp)
  call void @_ZN6google10LogMessageC1EPKci(ptr noundef nonnull align 8 dereferenceable(96) %ref.tmp5, ptr noundef @.str, i32 noundef 1477)
  store i1 true, ptr %cleanup.cond, align 1
  %call6 = invoke noundef nonnull align 8 dereferenceable(8) ptr @_ZN6google10LogMessage6streamEv(ptr noundef nonnull align 8 dereferenceable(96) %ref.tmp5)
          to label %invoke.cont unwind label %lpad

invoke.cont:                                      ; preds = %cond.false4
  %call8 = invoke noundef nonnull align 8 dereferenceable(8) ptr @_ZN6wanglelsERSoRKNS_17ManagedConnectionE(ptr noundef nonnull align 8 dereferenceable(8) %call6, ptr noundef nonnull align 8 dereferenceable(208) %this1)
          to label %invoke.cont7 unwind label %lpad

invoke.cont7:                                     ; preds = %invoke.cont
  %call10 = invoke noundef nonnull align 8 dereferenceable(8) ptr @_ZStlsISt11char_traitsIcEERSt13basic_ostreamIcT_ES5_PKc(ptr noundef nonnull align 8 dereferenceable(8) %call8, ptr noundef @.str.107)
          to label %invoke.cont9 unwind label %lpad

invoke.cont9:                                     ; preds = %invoke.cont7
  %6 = load i32, ptr %windowSize.addr, align 4
  %call12 = invoke noundef nonnull align 8 dereferenceable(8) ptr @_ZNSolsEj(ptr noundef nonnull align 8 dereferenceable(8) %call10, i32 noundef %6)
          to label %invoke.cont11 unwind label %lpad

invoke.cont11:                                    ; preds = %invoke.cont9
  invoke void @_ZN6google17LogMessageVoidifyanERSo(ptr noundef nonnull align 1 dereferenceable(1) %ref.tmp, ptr noundef nonnull align 8 dereferenceable(8) %call12)
          to label %invoke.cont13 unwind label %lpad

invoke.cont13:                                    ; preds = %invoke.cont11
  br label %cond.end14

cond.end14:                                       ; preds = %invoke.cont13, %cond.true3
  %cleanup.is_active = load i1, ptr %cleanup.cond, align 1
  br i1 %cleanup.is_active, label %cleanup.action, label %cleanup.done

cleanup.action:                                   ; preds = %cond.end14
  call void @_ZN6google10LogMessageD1Ev(ptr noundef nonnull align 8 dereferenceable(96) %ref.tmp5) #3
  br label %cleanup.done

cleanup.done:                                     ; preds = %cleanup.action, %cond.end14
  %7 = getelementptr inbounds %class.anon.410, ptr %agg.tmp18, i32 0, i32 0
  %8 = load i32, ptr %windowSize.addr, align 4
  store i32 %8, ptr %7, align 4
  %coerce.dive = getelementptr inbounds %class.anon.410, ptr %agg.tmp18, i32 0, i32 0
  %9 = load i32, ptr %coerce.dive, align 4
  call void @"_ZN5folly8FunctionIFvPN8proxygen15HTTPTransactionEEEC2IZNS1_11HTTPSession15onSetSendWindowEjE3$_0vvLb1EEET_"(ptr noundef nonnull align 16 dereferenceable(64) %agg.tmp, i32 %9) #3
  invoke void @_ZN8proxygen11HTTPSession23invokeOnAllTransactionsEN5folly8FunctionIFvPNS_15HTTPTransactionEEEE(ptr noundef nonnull align 8 dereferenceable(2504) %this1, ptr noundef %agg.tmp)
          to label %invoke.cont20 unwind label %lpad19

invoke.cont20:                                    ; preds = %cleanup.done
  call void @_ZN5folly8FunctionIFvPN8proxygen15HTTPTransactionEEED2Ev(ptr noundef nonnull align 16 dereferenceable(64) %agg.tmp) #3
  ret void

lpad:                                             ; preds = %invoke.cont11, %invoke.cont9, %invoke.cont7, %invoke.cont, %cond.false4
  %10 = landingpad { ptr, i32 }
          cleanup
  %11 = extractvalue { ptr, i32 } %10, 0
  store ptr %11, ptr %exn.slot, align 8
  %12 = extractvalue { ptr, i32 } %10, 1
  store i32 %12, ptr %ehselector.slot, align 4
  %cleanup.is_active15 = load i1, ptr %cleanup.cond, align 1
  br i1 %cleanup.is_active15, label %cleanup.action16, label %cleanup.done17

cleanup.action16:                                 ; preds = %lpad
  call void @_ZN6google10LogMessageD1Ev(ptr noundef nonnull align 8 dereferenceable(96) %ref.tmp5) #3
  br label %cleanup.done17

cleanup.done17:                                   ; preds = %cleanup.action16, %lpad
  br label %eh.resume

lpad19:                                           ; preds = %cleanup.done
  %13 = landingpad { ptr, i32 }
          cleanup
  %14 = extractvalue { ptr, i32 } %13, 0
  store ptr %14, ptr %exn.slot, align 8
  %15 = extractvalue { ptr, i32 } %13, 1
  store i32 %15, ptr %ehselector.slot, align 4
  call void @_ZN5folly8FunctionIFvPN8proxygen15HTTPTransactionEEED2Ev(ptr noundef nonnull align 16 dereferenceable(64) %agg.tmp) #3
  br label %eh.resume

eh.resume:                                        ; preds = %lpad19, %cleanup.done17
  %exn = load ptr, ptr %exn.slot, align 8
  %sel = load i32, ptr %ehselector.slot, align 4
  %lpad.val = insertvalue { ptr, i32 } poison, ptr %exn, 0
  %lpad.val21 = insertvalue { ptr, i32 } %lpad.val, i32 %sel, 1
  resume { ptr, i32 } %lpad.val21
}