; Function Attrs: mustprogress uwtable
define void @_ZN8proxygen11HTTPSession15onSetSendWindowEj(ptr noundef nonnull align 8 dereferenceable(2504) %this, i32 noundef %windowSize) local_unnamed_addr #3 align 2 personality ptr @__gxx_personality_v0 {
entry:
  %ref.tmp5 = alloca %"class.google::LogMessage", align 8
  %agg.tmp = alloca %"class.folly::Function.296", align 16
  %0 = load ptr, ptr @_ZZN8proxygen11HTTPSession15onSetSendWindowEjE8vlocal__, align 8
  %cmp = icmp eq ptr %0, null
  br i1 %cmp, label %cond.true, label %cond.end

cond.true:                                        ; preds = %entry
  %call = tail call noundef zeroext i1 @_ZN6google11InitVLOG3__EPNS_8SiteFlagEPiPKci(ptr noundef nonnull @_ZZN8proxygen11HTTPSession15onSetSendWindowEjE8vlocal__, ptr noundef nonnull @_ZN3fLI7FLAGS_vE, ptr noundef nonnull @.str, i32 noundef 4)
  br i1 %call, label %cond.false4, label %cleanup.done

cond.end:                                         ; preds = %entry
  %1 = load i32, ptr %0, align 4
  %cmp2 = icmp sgt i32 %1, 3
  br i1 %cmp2, label %cond.false4, label %cleanup.done

cond.false4:                                      ; preds = %cond.true, %cond.end
  call void @_ZN6google10LogMessageC1EPKci(ptr noundef nonnull align 8 dereferenceable(96) %ref.tmp5, ptr noundef nonnull @.str, i32 noundef 1477)
  %call6 = invoke noundef nonnull align 8 dereferenceable(8) ptr @_ZN6google10LogMessage6streamEv(ptr noundef nonnull align 8 dereferenceable(96) %ref.tmp5)
          to label %invoke.cont unwind label %lpad

invoke.cont:                                      ; preds = %cond.false4
  %call8 = invoke noundef nonnull align 8 dereferenceable(8) ptr @_ZN6wanglelsERSoRKNS_17ManagedConnectionE(ptr noundef nonnull align 8 dereferenceable(8) %call6, ptr noundef nonnull align 8 dereferenceable(208) %this)
          to label %invoke.cont7 unwind label %lpad

invoke.cont7:                                     ; preds = %invoke.cont
  %call10 = invoke noundef nonnull align 8 dereferenceable(8) ptr @_ZStlsISt11char_traitsIcEERSt13basic_ostreamIcT_ES5_PKc(ptr noundef nonnull align 8 dereferenceable(8) %call8, ptr noundef nonnull @.str.107)
          to label %invoke.cont9 unwind label %lpad

invoke.cont9:                                     ; preds = %invoke.cont7
  %call12 = invoke noundef nonnull align 8 dereferenceable(8) ptr @_ZNSolsEj(ptr noundef nonnull align 8 dereferenceable(8) %call10, i32 noundef %windowSize)
          to label %cleanup.action unwind label %lpad

cleanup.action:                                   ; preds = %invoke.cont9
  call void @_ZN6google10LogMessageD1Ev(ptr noundef nonnull align 8 dereferenceable(96) %ref.tmp5) #39
  br label %cleanup.done

cleanup.done:                                     ; preds = %cond.true, %cond.end, %cleanup.action
  store ptr null, ptr %agg.tmp, align 16
  %call_.i = getelementptr inbounds i8, ptr %agg.tmp, i64 48
  %exec_.i = getelementptr inbounds i8, ptr %agg.tmp, i64 56
  store i32 %windowSize, ptr %agg.tmp, align 16
  store ptr @"_ZN5folly6detail8function14FunctionTraitsIFvPN8proxygen15HTTPTransactionEEE9callSmallIZNS3_11HTTPSession15onSetSendWindowEjE3$_0EEvS5_RNS1_4DataE", ptr %call_.i, align 16
  store ptr @_ZN5folly6detail8function20DispatchSmallTrivial5exec_ILm16EEEmNS1_2OpEPNS1_4DataES6_, ptr %exec_.i, align 8
  invoke void @_ZN8proxygen11HTTPSession23invokeOnAllTransactionsEN5folly8FunctionIFvPNS_15HTTPTransactionEEEE(ptr noundef nonnull align 8 dereferenceable(2504) %this, ptr noundef nonnull %agg.tmp)
          to label %invoke.cont20 unwind label %lpad19

invoke.cont20:                                    ; preds = %cleanup.done
  %2 = load ptr, ptr %exec_.i, align 8
  %tobool.not.i.i = icmp eq ptr %2, null
  br i1 %tobool.not.i.i, label %_ZN5folly8FunctionIFvPN8proxygen15HTTPTransactionEEED2Ev.exit, label %if.end.i.i

if.end.i.i:                                       ; preds = %invoke.cont20
  %call.i.i = call noundef i64 %2(i32 noundef 1, ptr noundef nonnull %agg.tmp, ptr noundef null) #39
  br label %_ZN5folly8FunctionIFvPN8proxygen15HTTPTransactionEEED2Ev.exit

_ZN5folly8FunctionIFvPN8proxygen15HTTPTransactionEEED2Ev.exit: ; preds = %invoke.cont20, %if.end.i.i
  ret void

lpad:                                             ; preds = %invoke.cont9, %invoke.cont7, %invoke.cont, %cond.false4
  %3 = landingpad { ptr, i32 }
          cleanup
  call void @_ZN6google10LogMessageD1Ev(ptr noundef nonnull align 8 dereferenceable(96) %ref.tmp5) #39
  br label %eh.resume

lpad19:                                           ; preds = %cleanup.done
  %4 = landingpad { ptr, i32 }
          cleanup
  %5 = load ptr, ptr %exec_.i, align 8
  %tobool.not.i.i5 = icmp eq ptr %5, null
  br i1 %tobool.not.i.i5, label %eh.resume, label %if.end.i.i6

if.end.i.i6:                                      ; preds = %lpad19
  %call.i.i7 = call noundef i64 %5(i32 noundef 1, ptr noundef nonnull %agg.tmp, ptr noundef null) #39
  br label %eh.resume

eh.resume:                                        ; preds = %if.end.i.i6, %lpad19, %lpad
  %.pn = phi { ptr, i32 } [ %3, %lpad ], [ %4, %lpad19 ], [ %4, %if.end.i.i6 ]
  resume { ptr, i32 } %.pn
}